target datalayout = "e-m:e-p270:32:32-p271:32:32-p272:64:64-i64:64-i128:128-f80:128-n8:16:32:64-S128"
target triple = "x86_64-pc-linux-gnu"

%struct._packet_info = type { ptr, ptr, i32, i32, %struct.nstime_t, %struct.nstime_t, %struct.nstime_t, i8, ptr, ptr, ptr, ptr, %struct._address, %struct._address, %struct._address, %struct._address, %struct._address, %struct._address, i32, ptr, i8, [3 x i8], %struct.anon, i32, i32, i32, i32, ptr, i8, ptr, ptr, i16, i16, i32, i32, i16, i32, i32, ptr, ptr, ptr, i8, i8, i16, i16, i16, i32, i16, i16, ptr, ptr, ptr, ptr, ptr, i32, i32 }
%struct.nstime_t = type { i64, i32 }
%struct._address = type { i32, i32, ptr, ptr }
%struct.anon = type { i8, [3 x i8] }
%struct.fp_mux_info_t = type { i32, i32, [64 x ptr], [64 x ptr], [64 x ptr] }

@proto_fp_mux = internal global i32 0, align 4
@fp_mux_handle = internal global ptr null, align 8

; Function Attrs: null_pointer_is_valid sspstrong uwtable
define internal zeroext i1 @heur_dissect_fp_mux(ptr noundef %0, ptr noundef %1, ptr noundef %2, ptr noundef %3) #0 {
  %5 = alloca i1, align 1
  %6 = alloca ptr, align 8
  %7 = alloca ptr, align 8
  %8 = alloca ptr, align 8
  %9 = alloca ptr, align 8
  %10 = alloca i8, align 1
  %11 = alloca i8, align 1
  %12 = alloca i16, align 2
  %13 = alloca i32, align 4
  %14 = alloca i32, align 4
  %15 = alloca i32, align 4
  %16 = alloca i32, align 4
  %17 = alloca ptr, align 8
  %18 = alloca ptr, align 8
  %19 = alloca i32, align 4
  store ptr %0, ptr %6, align 8
  store ptr %1, ptr %7, align 8
  store ptr %2, ptr %8, align 8
  store ptr %3, ptr %9, align 8
  call void @llvm.lifetime.start.p0(i64 1, ptr %10) #4
  call void @llvm.lifetime.start.p0(i64 1, ptr %11) #4
  call void @llvm.lifetime.start.p0(i64 2, ptr %12) #4
  call void @llvm.lifetime.start.p0(i64 4, ptr %13) #4
  call void @llvm.lifetime.start.p0(i64 4, ptr %14) #4
  call void @llvm.lifetime.start.p0(i64 4, ptr %15) #4
  store i32 0, ptr %15, align 4
  call void @llvm.lifetime.start.p0(i64 4, ptr %16) #4
  store i32 0, ptr %16, align 4
  call void @llvm.lifetime.start.p0(i64 8, ptr %17) #4
  call void @llvm.lifetime.start.p0(i64 8, ptr %18) #4
  %20 = load ptr, ptr %6, align 8
  %21 = call i32 @tvb_captured_length(ptr noundef %20)
  store i32 %21, ptr %14, align 4
  %22 = load i32, ptr %14, align 4
  %23 = icmp eq i32 %22, 0
  br i1 %23, label %24, label %25

24:                                               ; preds = %4
  store i1 false, ptr %5, align 1
  store i32 1, ptr %19, align 4
  br label %138

25:                                               ; preds = %4
  %26 = call ptr @wmem_file_scope()
  %27 = load ptr, ptr %7, align 8
  %28 = load i32, ptr @proto_fp_mux, align 4
  %29 = call ptr @p_get_proto_data(ptr noundef %26, ptr noundef %27, i32 noundef %28, i32 noundef 0)
  store ptr %29, ptr %18, align 8
  %30 = load ptr, ptr %18, align 8
  %31 = icmp ne ptr %30, null
  br i1 %31, label %32, label %55

32:                                               ; preds = %25
  %33 = load ptr, ptr %18, align 8
  %34 = getelementptr inbounds nuw %struct.fp_mux_info_t, ptr %33, i32 0, i32 0
  %35 = load i32, ptr %34, align 8
  %36 = load ptr, ptr %7, align 8
  %37 = getelementptr inbounds nuw %struct._packet_info, ptr %36, i32 0, i32 24
  %38 = load i32, ptr %37, align 4
  %39 = icmp eq i32 %35, %38
  br i1 %39, label %40, label %54

40:                                               ; preds = %32
  %41 = load ptr, ptr %18, align 8
  %42 = getelementptr inbounds nuw %struct.fp_mux_info_t, ptr %41, i32 0, i32 1
  %43 = load i32, ptr %42, align 4
  %44 = load ptr, ptr %7, align 8
  %45 = getelementptr inbounds nuw %struct._packet_info, ptr %44, i32 0, i32 25
  %46 = load i32, ptr %45, align 8
  %47 = icmp eq i32 %43, %46
  br i1 %47, label %48, label %54

48:                                               ; preds = %40
  %49 = load ptr, ptr %6, align 8
  %50 = load ptr, ptr %7, align 8
  %51 = load ptr, ptr %8, align 8
  %52 = load ptr, ptr %9, align 8
  %53 = call i32 @dissect_fp_mux(ptr noundef %49, ptr noundef %50, ptr noundef %51, ptr noundef %52)
  store i1 true, ptr %5, align 1
  store i32 1, ptr %19, align 4
  br label %138

54:                                               ; preds = %40, %32
  store i1 false, ptr %5, align 1
  store i32 1, ptr %19, align 4
  br label %138

55:                                               ; preds = %25
  br label %56

56:                                               ; preds = %108, %55
  %57 = load i32, ptr %15, align 4
  %58 = load i32, ptr %14, align 4
  %59 = icmp ult i32 %57, %58
  br i1 %59, label %60, label %119

60:                                               ; preds = %56
  %61 = load i32, ptr %14, align 4
  %62 = load i32, ptr %15, align 4
  %63 = add i32 %62, 2
  %64 = icmp ult i32 %61, %63
  br i1 %64, label %65, label %66

65:                                               ; preds = %60
  store i1 false, ptr %5, align 1
  store i32 1, ptr %19, align 4
  br label %138

66:                                               ; preds = %60
  %67 = load ptr, ptr %6, align 8
  %68 = load i32, ptr %15, align 4
  %69 = add i32 %68, 2
  %70 = call zeroext i8 @tvb_get_uint8(ptr noundef %67, i32 noundef %69)
  %71 = zext i8 %70 to i32
  %72 = and i32 %71, 128
  %73 = icmp eq i32 %72, 128
  %74 = zext i1 %73 to i8
  store i8 %74, ptr %10, align 1
  %75 = load i8, ptr %10, align 1, !range !6, !noundef !7
  %76 = trunc i8 %75 to i1
  %77 = select i1 %76, i32 4, i32 3
  store i32 %77, ptr %13, align 4
  %78 = load i32, ptr %14, align 4
  %79 = load i32, ptr %15, align 4
  %80 = load i32, ptr %13, align 4
  %81 = add i32 %79, %80
  %82 = icmp ult i32 %78, %81
  br i1 %82, label %83, label %84

83:                                               ; preds = %66
  store i1 false, ptr %5, align 1
  store i32 1, ptr %19, align 4
  br label %138

84:                                               ; preds = %66
  %85 = load i32, ptr %15, align 4
  %86 = add i32 %85, 2
  store i32 %86, ptr %15, align 4
  %87 = load i8, ptr %10, align 1, !range !6, !noundef !7
  %88 = trunc i8 %87 to i1
  br i1 %88, label %89, label %96

89:                                               ; preds = %84
  %90 = load ptr, ptr %6, align 8
  %91 = load i32, ptr %15, align 4
  %92 = call zeroext i16 @tvb_get_ntohs(ptr noundef %90, i32 noundef %91)
  %93 = zext i16 %92 to i32
  %94 = and i32 %93, 32767
  %95 = trunc i32 %94 to i16
  store i16 %95, ptr %12, align 2
  store i8 2, ptr %11, align 1
  br label %103

96:                                               ; preds = %84
  %97 = load ptr, ptr %6, align 8
  %98 = load i32, ptr %15, align 4
  %99 = call zeroext i8 @tvb_get_uint8(ptr noundef %97, i32 noundef %98)
  %100 = zext i8 %99 to i32
  %101 = and i32 %100, 127
  %102 = trunc i32 %101 to i16
  store i16 %102, ptr %12, align 2
  store i8 1, ptr %11, align 1
  br label %103

103:                                              ; preds = %96, %89
  %104 = load i16, ptr %12, align 2
  %105 = zext i16 %104 to i32
  %106 = icmp slt i32 %105, 3
  br i1 %106, label %107, label %108

107:                                              ; preds = %103
  store i1 false, ptr %5, align 1
  store i32 1, ptr %19, align 4
  br label %138

108:                                              ; preds = %103
  %109 = load i8, ptr %11, align 1
  %110 = zext i8 %109 to i32
  %111 = load i32, ptr %15, align 4
  %112 = add i32 %111, %110
  store i32 %112, ptr %15, align 4
  %113 = load i16, ptr %12, align 2
  %114 = zext i16 %113 to i32
  %115 = load i32, ptr %15, align 4
  %116 = add i32 %115, %114
  store i32 %116, ptr %15, align 4
  %117 = load i32, ptr %16, align 4
  %118 = add i32 %117, 1
  store i32 %118, ptr %16, align 4
  br label %56, !llvm.loop !10

119:                                              ; preds = %56
  %120 = load i32, ptr %15, align 4
  %121 = load i32, ptr %14, align 4
  %122 = icmp ugt i32 %120, %121
  br i1 %122, label %123, label %124

123:                                              ; preds = %119
  store i1 false, ptr %5, align 1
  store i32 1, ptr %19, align 4
  br label %138

124:                                              ; preds = %119
  %125 = load i32, ptr %16, align 4
  %126 = icmp eq i32 %125, 1
  br i1 %126, label %127, label %128

127:                                              ; preds = %124
  store i1 false, ptr %5, align 1
  store i32 1, ptr %19, align 4
  br label %138

128:                                              ; preds = %124
  %129 = load ptr, ptr %7, align 8
  %130 = call ptr @find_or_create_conversation(ptr noundef %129)
  store ptr %130, ptr %17, align 8
  %131 = load ptr, ptr %17, align 8
  %132 = load ptr, ptr @fp_mux_handle, align 8
  call void @conversation_set_dissector(ptr noundef %131, ptr noundef %132)
  %133 = load ptr, ptr %6, align 8
  %134 = load ptr, ptr %7, align 8
  %135 = load ptr, ptr %8, align 8
  %136 = load ptr, ptr %9, align 8
  %137 = call i32 @dissect_fp_mux(ptr noundef %133, ptr noundef %134, ptr noundef %135, ptr noundef %136)
  store i1 true, ptr %5, align 1
  store i32 1, ptr %19, align 4
  br label %138

138:                                              ; preds = %128, %127, %123, %107, %83, %65, %54, %48, %24
  call void @llvm.lifetime.end.p0(i64 8, ptr %18) #4
  call void @llvm.lifetime.end.p0(i64 8, ptr %17) #4
  call void @llvm.lifetime.end.p0(i64 4, ptr %16) #4
  call void @llvm.lifetime.end.p0(i64 4, ptr %15) #4
  call void @llvm.lifetime.end.p0(i64 4, ptr %14) #4
  call void @llvm.lifetime.end.p0(i64 4, ptr %13) #4
  call void @llvm.lifetime.end.p0(i64 2, ptr %12) #4
  call void @llvm.lifetime.end.p0(i64 1, ptr %11) #4
  call void @llvm.lifetime.end.p0(i64 1, ptr %10) #4
  %139 = load i1, ptr %5, align 1
  ret i1 %139
}