; Function Attrs: null_pointer_is_valid sspstrong uwtable
define internal noundef zeroext i1 @heur_dissect_fp_mux(ptr noundef %0, ptr noundef %1, ptr noundef %2, ptr readnone captures(none) %3) #0 {
  %5 = tail call i32 @tvb_captured_length(ptr noundef %0)
  %6 = icmp eq i32 %5, 0
  br i1 %6, label %.loopexit, label %7

7:                                                ; preds = %4
  %8 = tail call ptr @wmem_file_scope()
  %9 = load i32, ptr @proto_fp_mux, align 4
  %10 = tail call ptr @p_get_proto_data(ptr noundef %8, ptr noundef %1, i32 noundef %9, i32 noundef 0)
  %.not = icmp eq ptr %10, null
  br i1 %.not, label %.preheader, label %11

11:                                               ; preds = %7
  %12 = load i32, ptr %10, align 8
  %13 = getelementptr inbounds nuw i8, ptr %1, i64 284
  %14 = load i32, ptr %13, align 4
  %15 = icmp eq i32 %12, %14
  br i1 %15, label %16, label %.loopexit

16:                                               ; preds = %11
  %17 = getelementptr inbounds nuw i8, ptr %10, i64 4
  %18 = load i32, ptr %17, align 4
  %19 = getelementptr inbounds nuw i8, ptr %1, i64 288
  %20 = load i32, ptr %19, align 8
  %21 = icmp eq i32 %18, %20
  br i1 %21, label %.loopexit.sink.split, label %.loopexit

.preheader:                                       ; preds = %7, %39
  %.04455 = phi i32 [ %43, %39 ], [ 0, %7 ]
  %.04554 = phi i32 [ %42, %39 ], [ 0, %7 ]
  %22 = add i32 %.04554, 2
  %23 = icmp ult i32 %5, %22
  br i1 %23, label %.loopexit, label %24

24:                                               ; preds = %.preheader
  %25 = tail call zeroext i8 @tvb_get_uint8(ptr noundef %0, i32 noundef %22)
  %.not51 = icmp sgt i8 %25, -1
  %26 = select i1 %.not51, i32 3, i32 4
  %27 = add i32 %26, %.04554
  %28 = icmp ult i32 %5, %27
  br i1 %28, label %.loopexit, label %29

29:                                               ; preds = %24
  br i1 %.not51, label %33, label %30

30:                                               ; preds = %29
  %31 = tail call zeroext i16 @tvb_get_ntohs(ptr noundef %0, i32 noundef %22)
  %32 = and i16 %31, 32767
  br label %37

33:                                               ; preds = %29
  %34 = tail call zeroext i8 @tvb_get_uint8(ptr noundef %0, i32 noundef %22)
  %35 = and i8 %34, 127
  %36 = zext nneg i8 %35 to i16
  br label %37

37:                                               ; preds = %33, %30
  %.046 = phi i16 [ %32, %30 ], [ %36, %33 ]
  %.043 = phi i32 [ 2, %30 ], [ 1, %33 ]
  %38 = icmp samesign ult i16 %.046, 3
  br i1 %38, label %.loopexit, label %39

39:                                               ; preds = %37
  %40 = zext nneg i16 %.046 to i32
  %41 = add i32 %.043, %22
  %42 = add i32 %41, %40
  %43 = add i32 %.04455, 1
  %44 = icmp ult i32 %42, %5
  br i1 %44, label %.preheader, label %45, !llvm.loop !10

45:                                               ; preds = %39
  %46 = icmp ugt i32 %42, %5
  %47 = icmp eq i32 %.04455, 0
  %or.cond = select i1 %46, i1 true, i1 %47
  br i1 %or.cond, label %.loopexit, label %48

48:                                               ; preds = %45
  %49 = tail call ptr @find_or_create_conversation(ptr noundef %1)
  %50 = load ptr, ptr @fp_mux_handle, align 8
  tail call void @conversation_set_dissector(ptr noundef %49, ptr noundef %50)
  br label %.loopexit.sink.split

.loopexit.sink.split:                             ; preds = %16, %48
  %51 = tail call i32 @dissect_fp_mux(ptr noundef %0, ptr noundef %1, ptr noundef %2, ptr poison)
  br label %.loopexit

.loopexit:                                        ; preds = %37, %24, %.preheader, %.loopexit.sink.split, %45, %11, %16, %4
  %.0 = phi i1 [ false, %4 ], [ false, %16 ], [ false, %11 ], [ false, %45 ], [ true, %.loopexit.sink.split ], [ false, %.preheader ], [ false, %24 ], [ false, %37 ]
  ret i1 %.0
}